target datalayout = "e-m:e-p270:32:32-p271:32:32-p272:64:64-i64:64-i128:128-f80:128-n8:16:32:64-S128"
target triple = "x86_64-pc-linux-gnu"

%struct.H5SL_t = type { i32, ptr, i32, i64, ptr, ptr }
%struct.H5SL_node_t = type { ptr, ptr, i64, i64, i32, ptr, ptr }

@H5SL_init_g = global i8 0, align 1
@H5_libterm_g = external global i8, align 1
@H5SL_fac_g = internal global ptr null, align 8
@.str = private unnamed_addr constant [98 x i8] c"generated/home/dtcxzyw/WorkSpace/Projects/compilers/llvm-opt-benchmark/bench/hdf5/hdf5/src/H5SL.c\00", align 1
@H5E_SLIST_g = external global i64, align 8
@H5E_NOSPACE_g = external global i64, align 8
@.str.2 = private unnamed_addr constant [25 x i8] c"memory allocation failed\00", align 1
@H5_H5SL_node_t_reg_free_list = internal global { i8, [3 x i8], i32, i32, [4 x i8], ptr, i64, ptr } { i8 0, [3 x i8] zeroinitializer, i32 0, i32 0, [4 x i8] zeroinitializer, ptr @.str.9, i64 56, ptr null }, align 8
@__func__.H5SL__release_common = private unnamed_addr constant [21 x i8] c"H5SL__release_common\00", align 1

; Function Attrs: nounwind uwtable
define internal i32 @H5SL__release_common(ptr noundef %0, ptr noundef %1, ptr noundef %2) #0 {
  %4 = alloca ptr, align 8
  %5 = alloca ptr, align 8
  %6 = alloca ptr, align 8
  %7 = alloca ptr, align 8
  %8 = alloca ptr, align 8
  %9 = alloca i32, align 4
  %10 = alloca i8, align 1
  store ptr %0, ptr %4, align 8, !tbaa !21
  store ptr %1, ptr %5, align 8, !tbaa !20
  store ptr %2, ptr %6, align 8, !tbaa !20
  call void @llvm.lifetime.start.p0(i64 8, ptr %7) #8
  call void @llvm.lifetime.start.p0(i64 8, ptr %8) #8
  call void @llvm.lifetime.start.p0(i64 4, ptr %9) #8
  store i32 0, ptr %9, align 4, !tbaa !16
  call void @llvm.lifetime.start.p0(i64 1, ptr %10) #8
  store i8 0, ptr %10, align 1, !tbaa !3
  %11 = load i8, ptr @H5SL_init_g, align 1, !tbaa !3, !range !7, !noundef !8
  %12 = trunc i8 %11 to i1
  br i1 %12, label %17, label %13

13:                                               ; preds = %3
  %14 = load i8, ptr @H5_libterm_g, align 1, !tbaa !3, !range !7, !noundef !8
  %15 = trunc i8 %14 to i1
  %16 = xor i1 %15, true
  br label %17

17:                                               ; preds = %13, %3
  %18 = phi i1 [ true, %3 ], [ %16, %13 ]
  %19 = xor i1 %18, true
  %20 = xor i1 %19, true
  %21 = zext i1 %20 to i32
  %22 = sext i32 %21 to i64
  %23 = call i64 @llvm.expect.i64(i64 %22, i64 1)
  %24 = icmp ne i64 %23, 0
  br i1 %24, label %25, label %142

25:                                               ; preds = %17
  %26 = load ptr, ptr %4, align 8, !tbaa !21
  %27 = getelementptr inbounds nuw %struct.H5SL_t, ptr %26, i32 0, i32 4
  %28 = load ptr, ptr %27, align 8, !tbaa !34
  %29 = getelementptr inbounds nuw %struct.H5SL_node_t, ptr %28, i32 0, i32 5
  %30 = load ptr, ptr %29, align 8, !tbaa !30
  %31 = getelementptr inbounds ptr, ptr %30, i64 0
  %32 = load ptr, ptr %31, align 8, !tbaa !29
  store ptr %32, ptr %7, align 8, !tbaa !29
  br label %33

33:                                               ; preds = %54, %25
  %34 = load ptr, ptr %7, align 8, !tbaa !29
  %35 = icmp ne ptr %34, null
  br i1 %35, label %36, label %70

36:                                               ; preds = %33
  %37 = load ptr, ptr %7, align 8, !tbaa !29
  %38 = getelementptr inbounds nuw %struct.H5SL_node_t, ptr %37, i32 0, i32 5
  %39 = load ptr, ptr %38, align 8, !tbaa !30
  %40 = getelementptr inbounds ptr, ptr %39, i64 0
  %41 = load ptr, ptr %40, align 8, !tbaa !29
  store ptr %41, ptr %8, align 8, !tbaa !29
  %42 = load ptr, ptr %5, align 8, !tbaa !20
  %43 = icmp ne ptr %42, null
  br i1 %43, label %44, label %54

44:                                               ; preds = %36
  %45 = load ptr, ptr %5, align 8, !tbaa !20
  %46 = load ptr, ptr %7, align 8, !tbaa !29
  %47 = getelementptr inbounds nuw %struct.H5SL_node_t, ptr %46, i32 0, i32 1
  %48 = load ptr, ptr %47, align 8, !tbaa !37
  %49 = load ptr, ptr %7, align 8, !tbaa !29
  %50 = getelementptr inbounds nuw %struct.H5SL_node_t, ptr %49, i32 0, i32 0
  %51 = load ptr, ptr %50, align 8, !tbaa !36
  %52 = load ptr, ptr %6, align 8, !tbaa !20
  %53 = call i32 %45(ptr noundef %48, ptr noundef %51, ptr noundef %52)
  br label %54

54:                                               ; preds = %44, %36
  %55 = load ptr, ptr @H5SL_fac_g, align 8, !tbaa !9
  %56 = load ptr, ptr %7, align 8, !tbaa !29
  %57 = getelementptr inbounds nuw %struct.H5SL_node_t, ptr %56, i32 0, i32 3
  %58 = load i64, ptr %57, align 8, !tbaa !40
  %59 = getelementptr inbounds nuw ptr, ptr %55, i64 %58
  %60 = load ptr, ptr %59, align 8, !tbaa !14
  %61 = load ptr, ptr %7, align 8, !tbaa !29
  %62 = getelementptr inbounds nuw %struct.H5SL_node_t, ptr %61, i32 0, i32 5
  %63 = load ptr, ptr %62, align 8, !tbaa !30
  %64 = call ptr @H5FL_fac_free(ptr noundef %60, ptr noundef %63)
  %65 = load ptr, ptr %7, align 8, !tbaa !29
  %66 = getelementptr inbounds nuw %struct.H5SL_node_t, ptr %65, i32 0, i32 5
  store ptr %64, ptr %66, align 8, !tbaa !30
  %67 = load ptr, ptr %7, align 8, !tbaa !29
  %68 = call ptr @H5FL_reg_free(ptr noundef @H5_H5SL_node_t_reg_free_list, ptr noundef %67)
  store ptr %68, ptr %7, align 8, !tbaa !29
  %69 = load ptr, ptr %8, align 8, !tbaa !29
  store ptr %69, ptr %7, align 8, !tbaa !29
  br label %33, !llvm.loop !191

70:                                               ; preds = %33
  %71 = load ptr, ptr @H5SL_fac_g, align 8, !tbaa !9
  %72 = load ptr, ptr %4, align 8, !tbaa !21
  %73 = getelementptr inbounds nuw %struct.H5SL_t, ptr %72, i32 0, i32 4
  %74 = load ptr, ptr %73, align 8, !tbaa !34
  %75 = getelementptr inbounds nuw %struct.H5SL_node_t, ptr %74, i32 0, i32 3
  %76 = load i64, ptr %75, align 8, !tbaa !40
  %77 = getelementptr inbounds nuw ptr, ptr %71, i64 %76
  %78 = load ptr, ptr %77, align 8, !tbaa !14
  %79 = load ptr, ptr %4, align 8, !tbaa !21
  %80 = getelementptr inbounds nuw %struct.H5SL_t, ptr %79, i32 0, i32 4
  %81 = load ptr, ptr %80, align 8, !tbaa !34
  %82 = getelementptr inbounds nuw %struct.H5SL_node_t, ptr %81, i32 0, i32 5
  %83 = load ptr, ptr %82, align 8, !tbaa !30
  %84 = call ptr @H5FL_fac_free(ptr noundef %78, ptr noundef %83)
  %85 = load ptr, ptr %4, align 8, !tbaa !21
  %86 = getelementptr inbounds nuw %struct.H5SL_t, ptr %85, i32 0, i32 4
  %87 = load ptr, ptr %86, align 8, !tbaa !34
  %88 = getelementptr inbounds nuw %struct.H5SL_node_t, ptr %87, i32 0, i32 5
  store ptr %84, ptr %88, align 8, !tbaa !30
  %89 = load ptr, ptr @H5SL_fac_g, align 8, !tbaa !9
  %90 = getelementptr inbounds ptr, ptr %89, i64 0
  %91 = load ptr, ptr %90, align 8, !tbaa !14
  %92 = call noalias ptr @H5FL_fac_malloc(ptr noundef %91)
  %93 = load ptr, ptr %4, align 8, !tbaa !21
  %94 = getelementptr inbounds nuw %struct.H5SL_t, ptr %93, i32 0, i32 4
  %95 = load ptr, ptr %94, align 8, !tbaa !34
  %96 = getelementptr inbounds nuw %struct.H5SL_node_t, ptr %95, i32 0, i32 5
  store ptr %92, ptr %96, align 8, !tbaa !30
  %97 = icmp eq ptr null, %92
  br i1 %97, label %98, label %117

98:                                               ; preds = %70
  br label %99

99:                                               ; preds = %98
  br label %100

100:                                              ; preds = %99
  br label %101

101:                                              ; preds = %100
  %102 = load i64, ptr @H5E_SLIST_g, align 8, !tbaa !12
  %103 = load i64, ptr @H5E_NOSPACE_g, align 8, !tbaa !12
  %104 = call i32 (ptr, ptr, i32, i64, i64, ptr, ...) @H5E_printf_stack(ptr noundef @.str, ptr noundef @__func__.H5SL__release_common, i32 noundef 844, i64 noundef %102, i64 noundef %103, ptr noundef @.str.2)
  br label %105

105:                                              ; preds = %101
  br label %106

106:                                              ; preds = %105
  store i8 1, ptr %10, align 1, !tbaa !3
  %107 = load i8, ptr %10, align 1, !tbaa !3, !range !7, !noundef !8
  %108 = trunc i8 %107 to i1
  %109 = zext i1 %108 to i8
  store i8 %109, ptr %10, align 1, !tbaa !3
  br label %110

110:                                              ; preds = %106
  br label %111

111:                                              ; preds = %110
  br label %112

112:                                              ; preds = %111
  store i32 -1, ptr %9, align 4, !tbaa !16
  br label %141

113:                                              ; No predecessors!
  br label %114

114:                                              ; preds = %113
  br label %115

115:                                              ; preds = %114
  br label %116

116:                                              ; preds = %115
  br label %117

117:                                              ; preds = %116, %70
  %118 = load ptr, ptr %4, align 8, !tbaa !21
  %119 = getelementptr inbounds nuw %struct.H5SL_t, ptr %118, i32 0, i32 4
  %120 = load ptr, ptr %119, align 8, !tbaa !34
  %121 = getelementptr inbounds nuw %struct.H5SL_node_t, ptr %120, i32 0, i32 5
  %122 = load ptr, ptr %121, align 8, !tbaa !30
  %123 = getelementptr inbounds ptr, ptr %122, i64 0
  store ptr null, ptr %123, align 8, !tbaa !29
  %124 = load ptr, ptr %4, align 8, !tbaa !21
  %125 = getelementptr inbounds nuw %struct.H5SL_t, ptr %124, i32 0, i32 4
  %126 = load ptr, ptr %125, align 8, !tbaa !34
  %127 = getelementptr inbounds nuw %struct.H5SL_node_t, ptr %126, i32 0, i32 3
  store i64 0, ptr %127, align 8, !tbaa !40
  %128 = load ptr, ptr %4, align 8, !tbaa !21
  %129 = getelementptr inbounds nuw %struct.H5SL_t, ptr %128, i32 0, i32 4
  %130 = load ptr, ptr %129, align 8, !tbaa !34
  %131 = getelementptr inbounds nuw %struct.H5SL_node_t, ptr %130, i32 0, i32 2
  store i64 0, ptr %131, align 8, !tbaa !38
  %132 = load ptr, ptr %4, align 8, !tbaa !21
  %133 = getelementptr inbounds nuw %struct.H5SL_t, ptr %132, i32 0, i32 4
  %134 = load ptr, ptr %133, align 8, !tbaa !34
  %135 = load ptr, ptr %4, align 8, !tbaa !21
  %136 = getelementptr inbounds nuw %struct.H5SL_t, ptr %135, i32 0, i32 5
  store ptr %134, ptr %136, align 8, !tbaa !35
  %137 = load ptr, ptr %4, align 8, !tbaa !21
  %138 = getelementptr inbounds nuw %struct.H5SL_t, ptr %137, i32 0, i32 2
  store i32 -1, ptr %138, align 8, !tbaa !27
  %139 = load ptr, ptr %4, align 8, !tbaa !21
  %140 = getelementptr inbounds nuw %struct.H5SL_t, ptr %139, i32 0, i32 3
  store i64 0, ptr %140, align 8, !tbaa !28
  br label %141

141:                                              ; preds = %117, %112
  br label %142

142:                                              ; preds = %141, %17
  %143 = load i32, ptr %9, align 4, !tbaa !16
  call void @llvm.lifetime.end.p0(i64 1, ptr %10) #8
  call void @llvm.lifetime.end.p0(i64 4, ptr %9) #8
  call void @llvm.lifetime.end.p0(i64 8, ptr %8) #8
  call void @llvm.lifetime.end.p0(i64 8, ptr %7) #8
  ret i32 %143
}