; Function Attrs: nounwind uwtable
define internal fastcc range(i32 -1, 1) i32 @H5SL__release_common(ptr noundef captures(none) %0, ptr noundef readonly captures(address_is_null) %1, ptr noundef %2) unnamed_addr #0 {
  %4 = load i8, ptr @H5SL_init_g, align 1, !tbaa !3, !range !7, !noundef !8
  %5 = trunc nuw i8 %4 to i1
  %6 = load i8, ptr @H5_libterm_g, align 1, !range !7
  %7 = trunc nuw i8 %6 to i1
  %8 = xor i1 %7, true
  %9 = select i1 %5, i1 true, i1 %8
  br i1 %9, label %10, label %67, !prof !9

10:                                               ; preds = %3
  %11 = getelementptr inbounds nuw i8, ptr %0, i64 32
  %12 = load ptr, ptr %11, align 8, !tbaa !32
  %13 = getelementptr inbounds nuw i8, ptr %12, i64 40
  %14 = load ptr, ptr %13, align 8, !tbaa !27
  %15 = load ptr, ptr %14, align 8, !tbaa !30
  %.not28 = icmp eq ptr %15, null
  br i1 %.not28, label %._crit_edge, label %.lr.ph

.lr.ph:                                           ; preds = %10
  %.not27 = icmp eq ptr %1, null
  br i1 %.not27, label %.lr.ph.split.us, label %.lr.ph.split

.lr.ph.split.us:                                  ; preds = %.lr.ph, %.lr.ph.split.us
  %.02529.us = phi ptr [ %18, %.lr.ph.split.us ], [ %15, %.lr.ph ]
  %16 = getelementptr inbounds nuw i8, ptr %.02529.us, i64 40
  %17 = load ptr, ptr %16, align 8, !tbaa !27
  %18 = load ptr, ptr %17, align 8, !tbaa !30
  %19 = load ptr, ptr @H5SL_fac_g, align 8, !tbaa !10
  %20 = getelementptr inbounds nuw i8, ptr %.02529.us, i64 24
  %21 = load i64, ptr %20, align 8, !tbaa !38
  %22 = getelementptr inbounds nuw ptr, ptr %19, i64 %21
  %23 = load ptr, ptr %22, align 8, !tbaa !15
  %24 = tail call ptr @H5FL_fac_free(ptr noundef %23, ptr noundef nonnull %17) #9
  store ptr %24, ptr %16, align 8, !tbaa !27
  %25 = tail call ptr @H5FL_reg_free(ptr noundef nonnull @H5_H5SL_node_t_reg_free_list, ptr noundef nonnull %.02529.us) #9
  %.not.us = icmp eq ptr %18, null
  br i1 %.not.us, label %._crit_edge, label %.lr.ph.split.us, !llvm.loop !189

.lr.ph.split:                                     ; preds = %.lr.ph, %.lr.ph.split
  %.02529 = phi ptr [ %28, %.lr.ph.split ], [ %15, %.lr.ph ]
  %26 = getelementptr inbounds nuw i8, ptr %.02529, i64 40
  %27 = load ptr, ptr %26, align 8, !tbaa !27
  %28 = load ptr, ptr %27, align 8, !tbaa !30
  %29 = getelementptr inbounds nuw i8, ptr %.02529, i64 8
  %30 = load ptr, ptr %29, align 8, !tbaa !35
  %31 = load ptr, ptr %.02529, align 8, !tbaa !34
  %32 = tail call i32 %1(ptr noundef %30, ptr noundef %31, ptr noundef %2) #9
  %33 = load ptr, ptr @H5SL_fac_g, align 8, !tbaa !10
  %34 = getelementptr inbounds nuw i8, ptr %.02529, i64 24
  %35 = load i64, ptr %34, align 8, !tbaa !38
  %36 = getelementptr inbounds nuw ptr, ptr %33, i64 %35
  %37 = load ptr, ptr %36, align 8, !tbaa !15
  %38 = load ptr, ptr %26, align 8, !tbaa !27
  %39 = tail call ptr @H5FL_fac_free(ptr noundef %37, ptr noundef %38) #9
  store ptr %39, ptr %26, align 8, !tbaa !27
  %40 = tail call ptr @H5FL_reg_free(ptr noundef nonnull @H5_H5SL_node_t_reg_free_list, ptr noundef nonnull %.02529) #9
  %.not = icmp eq ptr %28, null
  br i1 %.not, label %._crit_edge, label %.lr.ph.split, !llvm.loop !189

._crit_edge:                                      ; preds = %.lr.ph.split, %.lr.ph.split.us, %10
  %41 = load ptr, ptr @H5SL_fac_g, align 8, !tbaa !10
  %42 = load ptr, ptr %11, align 8, !tbaa !32
  %43 = getelementptr inbounds nuw i8, ptr %42, i64 24
  %44 = load i64, ptr %43, align 8, !tbaa !38
  %45 = getelementptr inbounds nuw ptr, ptr %41, i64 %44
  %46 = load ptr, ptr %45, align 8, !tbaa !15
  %47 = getelementptr inbounds nuw i8, ptr %42, i64 40
  %48 = load ptr, ptr %47, align 8, !tbaa !27
  %49 = tail call ptr @H5FL_fac_free(ptr noundef %46, ptr noundef %48) #9
  %50 = load ptr, ptr %11, align 8, !tbaa !32
  %51 = getelementptr inbounds nuw i8, ptr %50, i64 40
  store ptr %49, ptr %51, align 8, !tbaa !27
  %52 = load ptr, ptr @H5SL_fac_g, align 8, !tbaa !10
  %53 = load ptr, ptr %52, align 8, !tbaa !15
  %54 = tail call noalias ptr @H5FL_fac_malloc(ptr noundef %53) #9
  %55 = load ptr, ptr %11, align 8, !tbaa !32
  %56 = getelementptr inbounds nuw i8, ptr %55, i64 40
  store ptr %54, ptr %56, align 8, !tbaa !27
  %57 = icmp eq ptr %54, null
  br i1 %57, label %58, label %62

58:                                               ; preds = %._crit_edge
  %59 = load i64, ptr @H5E_SLIST_g, align 8, !tbaa !13
  %60 = load i64, ptr @H5E_NOSPACE_g, align 8, !tbaa !13
  %61 = tail call i32 (ptr, ptr, i32, i64, i64, ptr, ...) @H5E_printf_stack(ptr noundef nonnull @.str, ptr noundef nonnull @__func__.H5SL__release_common, i32 noundef 844, i64 noundef %59, i64 noundef %60, ptr noundef nonnull @.str.2) #9
  br label %67

62:                                               ; preds = %._crit_edge
  store ptr null, ptr %54, align 8, !tbaa !30
  %63 = getelementptr inbounds nuw i8, ptr %55, i64 16
  %64 = getelementptr inbounds nuw i8, ptr %0, i64 40
  tail call void @llvm.memset.p0.i64(ptr noundef nonnull align 8 dereferenceable(16) %63, i8 0, i64 16, i1 false)
  store ptr %55, ptr %64, align 8, !tbaa !33
  %65 = getelementptr inbounds nuw i8, ptr %0, i64 16
  store i32 -1, ptr %65, align 8, !tbaa !25
  %66 = getelementptr inbounds nuw i8, ptr %0, i64 24
  store i64 0, ptr %66, align 8, !tbaa !26
  br label %67

67:                                               ; preds = %58, %62, %3
  %.0 = phi i32 [ -1, %58 ], [ 0, %62 ], [ 0, %3 ]
  ret i32 %.0
}